; Function Attrs: nounwind uwtable
define range(i32 -1, 1) i32 @H5PLset_loading_state(i32 noundef %0) local_unnamed_addr #0 {
  %2 = load i8, ptr @H5_libinit_g, align 1
  %3 = trunc i8 %2 to i1
  %4 = load i8, ptr @H5_libterm_g, align 1
  %5 = trunc i8 %4 to i1
  %6 = select i1 %3, i1 true, i1 %5
  br i1 %6, label %14, label %7

7:                                                ; preds = %1
  %8 = tail call i32 @H5_init_library() #4
  %9 = icmp slt i32 %8, 0
  br i1 %9, label %10, label %14

10:                                               ; preds = %7
  %11 = load i64, ptr @H5E_FUNC_g, align 8
  %12 = load i64, ptr @H5E_CANTINIT_g, align 8
  %13 = tail call i32 (ptr, ptr, i32, i64, i64, ptr, ...) @H5E_printf_stack(ptr noundef nonnull @.str, ptr noundef nonnull @__func__.H5PLset_loading_state, i32 noundef 79, i64 noundef %11, i64 noundef %12, ptr noundef nonnull @.str.1) #4
  br label %.thread17

14:                                               ; preds = %7, %1
  %15 = tail call i32 @H5CX_push() #4
  %16 = icmp slt i32 %15, 0
  br i1 %16, label %17, label %21

17:                                               ; preds = %14
  %18 = load i64, ptr @H5E_FUNC_g, align 8
  %19 = load i64, ptr @H5E_CANTSET_g, align 8
  %20 = tail call i32 (ptr, ptr, i32, i64, i64, ptr, ...) @H5E_printf_stack(ptr noundef nonnull @.str, ptr noundef nonnull @__func__.H5PLset_loading_state, i32 noundef 79, i64 noundef %18, i64 noundef %19, ptr noundef nonnull @.str.2) #4
  br label %.thread17

21:                                               ; preds = %14
  %22 = tail call i32 @H5E_clear_stack() #4
  %23 = tail call i32 @H5PL__set_plugin_control_mask(i32 noundef %0) #4
  %24 = icmp slt i32 %23, 0
  br i1 %24, label %.thread22, label %29

.thread22:                                        ; preds = %21
  %25 = load i64, ptr @H5E_ARGS_g, align 8
  %26 = load i64, ptr @H5E_CANTSET_g, align 8
  %27 = tail call i32 (ptr, ptr, i32, i64, i64, ptr, ...) @H5E_printf_stack(ptr noundef nonnull @.str, ptr noundef nonnull @__func__.H5PLset_loading_state, i32 noundef 83, i64 noundef %25, i64 noundef %26, ptr noundef nonnull @.str.3) #4
  %28 = tail call i32 @H5CX_pop(i1 noundef zeroext true) #4
  br label %.thread17

29:                                               ; preds = %21
  %30 = tail call i32 @H5CX_pop(i1 noundef zeroext true) #4
  br label %32

.thread17:                                        ; preds = %17, %10, %.thread22
  %31 = tail call i32 @H5E_dump_api_stack() #4
  br label %32

32:                                               ; preds = %29, %.thread17
  %.081220 = phi i32 [ -1, %.thread17 ], [ 0, %29 ]
  ret i32 %.081220
}